target datalayout = "e-m:e-p270:32:32-p271:32:32-p272:64:64-i64:64-i128:128-f80:128-n8:16:32:64-S128"
target triple = "x86_64-pc-linux-gnu"

%struct.xorkey_st = type { [32 x i8], [32 x i8], i32, i32, ptr, %struct.CRYPTO_REF_COUNT }
%struct.CRYPTO_REF_COUNT = type { i32 }
%struct.PROV_XORSIG_CTX = type { ptr, ptr, ptr, i8, [50 x i8], ptr, i64, ptr, ptr, i32 }

@.str.2 = private unnamed_addr constant [31 x i8] c"../openssl/test/tls-provider.c\00", align 1
@__func__.xor_sig_sign = private unnamed_addr constant [13 x i8] c"xor_sig_sign\00", align 1
@.str.67 = private unnamed_addr constant [5 x i8] c"HMAC\00", align 1
@.str.68 = private unnamed_addr constant [5 x i8] c"sha1\00", align 1

; Function Attrs: nounwind uwtable
define internal i32 @xor_sig_sign(ptr noundef %0, ptr noundef %1, ptr noundef %2, i64 noundef %3, ptr noundef %4, i64 noundef %5) #0 {
  %7 = alloca i32, align 4
  %8 = alloca ptr, align 8
  %9 = alloca ptr, align 8
  %10 = alloca ptr, align 8
  %11 = alloca i64, align 8
  %12 = alloca ptr, align 8
  %13 = alloca i64, align 8
  %14 = alloca ptr, align 8
  %15 = alloca ptr, align 8
  %16 = alloca i64, align 8
  %17 = alloca i64, align 8
  %18 = alloca i32, align 4
  %19 = alloca i32, align 4
  store ptr %0, ptr %8, align 8, !tbaa !13
  store ptr %1, ptr %9, align 8, !tbaa !30
  store ptr %2, ptr %10, align 8, !tbaa !66
  store i64 %3, ptr %11, align 8, !tbaa !35
  store ptr %4, ptr %12, align 8, !tbaa !30
  store i64 %5, ptr %13, align 8, !tbaa !35
  call void @llvm.lifetime.start.p0(i64 8, ptr %14) #8
  %20 = load ptr, ptr %8, align 8, !tbaa !13
  store ptr %20, ptr %14, align 8, !tbaa !13
  call void @llvm.lifetime.start.p0(i64 8, ptr %15) #8
  %21 = load ptr, ptr %14, align 8, !tbaa !13
  %22 = getelementptr inbounds nuw %struct.PROV_XORSIG_CTX, ptr %21, i32 0, i32 2
  %23 = load ptr, ptr %22, align 8, !tbaa !145
  store ptr %23, ptr %15, align 8, !tbaa !41
  call void @llvm.lifetime.start.p0(i64 8, ptr %16) #8
  store i64 64, ptr %16, align 8, !tbaa !35
  call void @llvm.lifetime.start.p0(i64 8, ptr %17) #8
  store i64 0, ptr %17, align 8, !tbaa !35
  call void @llvm.lifetime.start.p0(i64 4, ptr %18) #8
  store i32 0, ptr %18, align 4, !tbaa !27
  %24 = load ptr, ptr %15, align 8, !tbaa !41
  %25 = icmp eq ptr %24, null
  br i1 %25, label %31, label %26

26:                                               ; preds = %6
  %27 = load ptr, ptr %15, align 8, !tbaa !41
  %28 = getelementptr inbounds nuw %struct.xorkey_st, ptr %27, i32 0, i32 2
  %29 = load i32, ptr %28, align 8, !tbaa !53
  %30 = icmp ne i32 %29, 0
  br i1 %30, label %33, label %31

31:                                               ; preds = %26, %6
  call void @ERR_new()
  call void @ERR_set_debug(ptr noundef @.str.2, i32 noundef 2748, ptr noundef @__func__.xor_sig_sign)
  call void (i32, i32, ptr, ...) @ERR_set_error(i32 noundef 128, i32 noundef 10, ptr noundef null)
  %32 = load i32, ptr %18, align 4, !tbaa !27
  store i32 %32, ptr %7, align 4
  store i32 1, ptr %19, align 4
  br label %65

33:                                               ; preds = %26
  %34 = load ptr, ptr %9, align 8, !tbaa !30
  %35 = icmp eq ptr %34, null
  br i1 %35, label %36, label %39

36:                                               ; preds = %33
  %37 = load i64, ptr %16, align 8, !tbaa !35
  %38 = load ptr, ptr %10, align 8, !tbaa !66
  store i64 %37, ptr %38, align 8, !tbaa !35
  store i32 1, ptr %7, align 4
  store i32 1, ptr %19, align 4
  br label %65

39:                                               ; preds = %33
  %40 = load ptr, ptr %10, align 8, !tbaa !66
  %41 = load i64, ptr %40, align 8, !tbaa !35
  %42 = load i64, ptr %16, align 8, !tbaa !35
  %43 = icmp ult i64 %41, %42
  br i1 %43, label %44, label %46

44:                                               ; preds = %39
  call void @ERR_new()
  call void @ERR_set_debug(ptr noundef @.str.2, i32 noundef 2757, ptr noundef @__func__.xor_sig_sign)
  call void (i32, i32, ptr, ...) @ERR_set_error(i32 noundef 128, i32 noundef 11, ptr noundef null)
  %45 = load i32, ptr %18, align 4, !tbaa !27
  store i32 %45, ptr %7, align 4
  store i32 1, ptr %19, align 4
  br label %65

46:                                               ; preds = %39
  %47 = load ptr, ptr %14, align 8, !tbaa !13
  %48 = getelementptr inbounds nuw %struct.PROV_XORSIG_CTX, ptr %47, i32 0, i32 0
  %49 = load ptr, ptr %48, align 8, !tbaa !140
  %50 = load ptr, ptr %15, align 8, !tbaa !41
  %51 = getelementptr inbounds nuw %struct.xorkey_st, ptr %50, i32 0, i32 0
  %52 = getelementptr inbounds [32 x i8], ptr %51, i64 0, i64 0
  %53 = load ptr, ptr %12, align 8, !tbaa !30
  %54 = load i64, ptr %13, align 8, !tbaa !35
  %55 = load ptr, ptr %9, align 8, !tbaa !30
  %56 = getelementptr inbounds i8, ptr %55, i64 0
  %57 = call ptr @EVP_Q_mac(ptr noundef %49, ptr noundef @.str.67, ptr noundef null, ptr noundef @.str.68, ptr noundef null, ptr noundef %52, i64 noundef 32, ptr noundef %53, i64 noundef %54, ptr noundef %56, i64 noundef 64, ptr noundef %17)
  %58 = icmp ne ptr %57, null
  br i1 %58, label %60, label %59

59:                                               ; preds = %46
  call void @ERR_new()
  call void @ERR_set_debug(ptr noundef @.str.2, i32 noundef 2768, ptr noundef @__func__.xor_sig_sign)
  call void (i32, i32, ptr, ...) @ERR_set_error(i32 noundef 128, i32 noundef 12, ptr noundef null)
  br label %63

60:                                               ; preds = %46
  %61 = load i64, ptr %17, align 8, !tbaa !35
  %62 = load ptr, ptr %10, align 8, !tbaa !66
  store i64 %61, ptr %62, align 8, !tbaa !35
  store i32 1, ptr %18, align 4, !tbaa !27
  br label %63

63:                                               ; preds = %60, %59
  %64 = load i32, ptr %18, align 4, !tbaa !27
  store i32 %64, ptr %7, align 4
  store i32 1, ptr %19, align 4
  br label %65

65:                                               ; preds = %63, %44, %36, %31
  call void @llvm.lifetime.end.p0(i64 4, ptr %18) #8
  call void @llvm.lifetime.end.p0(i64 8, ptr %17) #8
  call void @llvm.lifetime.end.p0(i64 8, ptr %16) #8
  call void @llvm.lifetime.end.p0(i64 8, ptr %15) #8
  call void @llvm.lifetime.end.p0(i64 8, ptr %14) #8
  %66 = load i32, ptr %7, align 4
  ret i32 %66
}