; Function Attrs: nounwind uwtable
define internal range(i32 0, 2) i32 @xor_sig_sign(ptr noundef readonly captures(none) %0, ptr noundef %1, ptr noundef captures(none) %2, i64 %3, ptr noundef %4, i64 noundef %5) #0 {
  %7 = alloca i64, align 8
  %8 = getelementptr inbounds nuw i8, ptr %0, i64 16
  %9 = load ptr, ptr %8, align 8, !tbaa !111
  call void @llvm.lifetime.start.p0(i64 8, ptr nonnull %7) #16
  store i64 0, ptr %7, align 8, !tbaa !47
  %10 = icmp eq ptr %9, null
  br i1 %10, label %14, label %11

11:                                               ; preds = %6
  %12 = getelementptr inbounds nuw i8, ptr %9, i64 64
  %13 = load i32, ptr %12, align 8, !tbaa !41
  %.not = icmp eq i32 %13, 0
  br i1 %.not, label %14, label %15

14:                                               ; preds = %11, %6
  tail call void @ERR_new() #16
  tail call void @ERR_set_debug(ptr noundef nonnull @.str.2, i32 noundef 2748, ptr noundef nonnull @__func__.xor_sig_sign) #16
  tail call void (i32, i32, ptr, ...) @ERR_set_error(i32 noundef 128, i32 noundef 10, ptr noundef null) #16
  br label %28

15:                                               ; preds = %11
  %16 = icmp eq ptr %1, null
  br i1 %16, label %17, label %18

17:                                               ; preds = %15
  store i64 64, ptr %2, align 8, !tbaa !47
  br label %28

18:                                               ; preds = %15
  %19 = load i64, ptr %2, align 8, !tbaa !47
  %20 = icmp ult i64 %19, 64
  br i1 %20, label %21, label %22

21:                                               ; preds = %18
  tail call void @ERR_new() #16
  tail call void @ERR_set_debug(ptr noundef nonnull @.str.2, i32 noundef 2757, ptr noundef nonnull @__func__.xor_sig_sign) #16
  tail call void (i32, i32, ptr, ...) @ERR_set_error(i32 noundef 128, i32 noundef 11, ptr noundef null) #16
  br label %28

22:                                               ; preds = %18
  %23 = load ptr, ptr %0, align 8, !tbaa !106
  %24 = call ptr @EVP_Q_mac(ptr noundef %23, ptr noundef nonnull @.str.67, ptr noundef null, ptr noundef nonnull @.str.68, ptr noundef null, ptr noundef nonnull %9, i64 noundef 32, ptr noundef %4, i64 noundef %5, ptr noundef nonnull %1, i64 noundef 64, ptr noundef nonnull %7) #16
  %.not21 = icmp eq ptr %24, null
  br i1 %.not21, label %25, label %26

25:                                               ; preds = %22
  call void @ERR_new() #16
  call void @ERR_set_debug(ptr noundef nonnull @.str.2, i32 noundef 2768, ptr noundef nonnull @__func__.xor_sig_sign) #16
  call void (i32, i32, ptr, ...) @ERR_set_error(i32 noundef 128, i32 noundef 12, ptr noundef null) #16
  br label %28

26:                                               ; preds = %22
  %27 = load i64, ptr %7, align 8, !tbaa !47
  store i64 %27, ptr %2, align 8, !tbaa !47
  br label %28

28:                                               ; preds = %25, %26, %21, %17, %14
  %.018 = phi i32 [ 0, %14 ], [ 1, %17 ], [ 0, %21 ], [ 1, %26 ], [ 0, %25 ]
  call void @llvm.lifetime.end.p0(i64 8, ptr nonnull %7) #16
  ret i32 %.018
}